Certificate:
    Data:
        Version: 3 (0x2)
        Serial Number:
            75:a2:f0:81:54:07:46:f0:dc:69:11:30:0f:f9:a2:9a
    Signature Algorithm: sha256WithRSAEncryption
        Issuer: CN=mgec
        Validity
            Not Before: Jun  5 09:48:31 2020 GMT
            Not After : Sep  8 09:48:31 2022 GMT
        Subject: CN=scu
        Subject Public Key Info:
            Public Key Algorithm: rsaEncryption
                Public-Key: (2048 bit)
                Modulus:
                    00:a7:f0:a3:3c:c8:91:3e:61:0f:d8:27:dd:0d:86:
                    0c:3b:38:66:10:a1:d8:6e:d2:81:50:0f:20:6e:69:
                    0a:7f:ff:f2:c1:87:5f:2e:ee:c1:8e:e4:8d:03:08:
                    b1:a9:ca:8c:22:ec:7a:0a:30:d4:da:f2:01:0f:f4:
                    3c:1b:17:59:7d:67:80:ec:67:26:3b:b0:a8:8a:00:
                    80:c8:92:7e:6d:e5:53:dc:94:f2:db:fa:57:e5:a2:
                    6d:d8:48:6a:5b:b6:3a:93:c6:3c:22:5a:ca:62:47:
                    57:80:f4:19:36:5f:f1:d1:ca:91:1b:8f:9c:99:c4:
                    e9:e5:42:87:c7:db:51:34:f5:e4:4f:36:57:14:24:
                    01:53:ba:28:b2:c4:92:d8:13:fc:b7:48:bc:68:62:
                    99:4b:18:b5:be:e4:43:a6:bd:c6:e6:70:dd:b8:a8:
                    ac:04:6c:9b:04:f7:ca:7d:97:67:4c:79:d2:a1:6c:
                    24:53:08:e5:65:2b:24:8d:cd:d1:30:6b:a0:34:a2:
                    f7:2f:45:4b:6a:1d:5e:b7:bb:aa:95:c2:88:61:9e:
                    36:cd:51:8a:c7:22:d9:0b:fc:3c:de:75:99:65:ff:
                    f9:0a:b5:24:62:2c:3f:67:86:30:e8:9c:4e:28:72:
                    b1:e2:83:6c:4b:0e:97:d4:28:e9:2d:e8:c3:64:4d:
                    9c:73
                Exponent: 65537 (0x10001)
        X509v3 extensions:
            X509v3 Basic Constraints: 
                CA:FALSE
            X509v3 Subject Key Identifier: 
                55:2F:05:BD:99:AC:63:3D:52:23:8C:7C:37:B6:F3:5B:FE:06:0E:72
            X509v3 Authority Key Identifier: 
                keyid:0D:5A:E3:33:27:46:E1:21:D5:37:F8:E2:DF:24:7D:F0:4F:CE:A5:AB
                DirName:/CN=mgec
                serial:FA:9D:5B:23:E1:9D:1F:A7

            X509v3 Extended Key Usage: 
                TLS Web Client Authentication
            X509v3 Key Usage: 
                Digital Signature
    Signature Algorithm: sha256WithRSAEncryption
         2e:93:10:45:bd:97:48:8d:ed:bd:24:0e:54:28:db:99:36:23:
         92:30:49:00:9a:e5:c3:e2:78:c7:79:82:5f:ee:d7:dc:41:42:
         cf:d2:c9:3a:7b:cb:1d:21:b0:71:41:53:29:08:52:65:1a:af:
         58:da:58:7e:d7:bf:c5:5e:df:8b:ce:63:b2:44:cf:fa:1d:40:
         25:97:b4:18:cb:ca:df:9c:94:1f:c9:f8:14:57:0d:af:9f:41:
         44:c8:aa:00:9d:51:47:97:d5:7a:e8:6b:f4:b0:2c:76:09:cc:
         d3:f9:f1:b4:56:6b:be:7e:24:b6:4d:df:a6:e5:5f:e7:8b:b6:
         70:10:39:e2:70:14:17:69:d4:62:0a:ef:66:a7:8b:4c:90:a5:
         e3:8c:2e:b8:e7:84:1d:80:6a:f4:8f:0c:e3:2f:ac:f5:3e:15:
         01:d4:ac:d3:b8:a0:7d:35:98:80:c5:2e:f0:dc:cc:ea:f7:1b:
         17:b8:25:fb:e1:66:c3:28:e7:e9:36:c4:9f:2a:cf:dc:e7:af:
         84:85:17:a5:de:be:71:99:9f:8b:7f:47:d0:69:d9:9d:14:c9:
         6a:fa:1e:56:c3:19:d4:00:37:e0:9e:93:2f:4d:61:06:c7:01:
         0c:8c:2d:c1:ab:7f:ea:c1:21:68:d3:30:06:42:3d:2f:79:6a:
         eb:8c:e3:87
-----BEGIN CERTIFICATE-----
MIIDODCCAiCgAwIBAgIQdaLwgVQHRvDcaREwD/mimjANBgkqhkiG9w0BAQsFADAP
MQ0wCwYDVQQDDARtZ2VjMB4XDTIwMDYwNTA5NDgzMVoXDTIyMDkwODA5NDgzMVow
DjEMMAoGA1UEAwwDc2N1MIIBIjANBgkqhkiG9w0BAQEFAAOCAQ8AMIIBCgKCAQEA
p/CjPMiRPmEP2CfdDYYMOzhmEKHYbtKBUA8gbmkKf//ywYdfLu7BjuSNAwixqcqM
Iux6CjDU2vIBD/Q8GxdZfWeA7GcmO7CoigCAyJJ+beVT3JTy2/pX5aJt2EhqW7Y6
k8Y8IlrKYkdXgPQZNl/x0cqRG4+cmcTp5UKHx9tRNPXkTzZXFCQBU7oossSS2BP8
t0i8aGKZSxi1vuRDpr3G5nDduKisBGybBPfKfZdnTHnSoWwkUwjlZSskjc3RMGug
NKL3L0VLah1et7uqlcKIYZ42zVGKxyLZC/w83nWZZf/5CrUkYiw/Z4Yw6JxOKHKx
4oNsSw6X1CjpLejDZE2ccwIDAQABo4GQMIGNMAkGA1UdEwQCMAAwHQYDVR0OBBYE
FFUvBb2ZrGM9UiOMfDe281v+Bg5yMD8GA1UdIwQ4MDaAFA1a4zMnRuEh1Tf44t8k
ffBPzqWroROkETAPMQ0wCwYDVQQDDARtZ2VjggkA+p1bI+GdH6cwEwYDVR0lBAww
CgYIKwYBBQUHAwIwCwYDVR0PBAQDAgeAMA0GCSqGSIb3DQEBCwUAA4IBAQAukxBF
vZdIje29JA5UKNuZNiOSMEkAmuXD4njHeYJf7tfcQULP0sk6e8sdIbBxQVMpCFJl
Gq9Y2lh+17/FXt+LzmOyRM/6HUAll7QYy8rfnJQfyfgUVw2vn0FEyKoAnVFHl9V6
6Gv0sCx2CczT+fG0Vmu+fiS2Td+m5V/ni7ZwEDnicBQXadRiCu9mp4tMkKXjjC64
54QdgGr0jwzjL6z1PhUB1KzTuKB9NZiAxS7w3Mzq9xsXuCX74WbDKOfpNsSfKs/c
56+EhRel3r5xmZ+Lf0fQadmdFMlq+h5WwxnUADfgnpMvTWEGxwEMjC3Bq3/qwSFo
0zAGQj0veWrrjOOH
-----END CERTIFICATE-----
