Certificate:
    Data:
        Version: 3 (0x2)
        Serial Number:
            dd:a3:a6:90:1c:ad:4f:96:eb:98:e1:78:50:35:94:53
    Signature Algorithm: sha256WithRSAEncryption
        Issuer: CN=mgec
        Validity
            Not Before: Jun  5 09:31:33 2020 GMT
            Not After : Sep  8 09:31:33 2022 GMT
        Subject: CN=server
        Subject Public Key Info:
            Public Key Algorithm: rsaEncryption
                Public-Key: (2048 bit)
                Modulus:
                    00:9d:b0:47:4d:f0:ed:aa:f4:c6:98:c9:62:3f:ee:
                    4b:95:ae:29:99:19:92:7f:14:f5:f0:8b:b5:6f:10:
                    e8:91:10:93:54:1d:d3:a8:43:8e:24:33:87:80:29:
                    d7:c0:2c:0d:9c:e6:27:3d:eb:ef:53:95:12:89:d8:
                    61:f4:58:72:8b:a9:81:10:09:60:04:ba:53:6c:1a:
                    8e:9a:07:93:1c:a8:50:9e:47:51:06:f9:04:8b:4c:
                    92:77:ab:ac:36:74:cd:fa:8c:8f:57:51:45:51:46:
                    b1:6a:20:96:1e:1b:aa:17:b3:a3:71:5b:67:8a:bb:
                    f0:04:ed:d9:18:ce:44:fb:53:75:a3:d0:a6:87:f5:
                    77:e3:6a:20:a1:bf:7c:1e:a2:79:b3:c2:56:12:63:
                    b1:c8:10:7b:97:ea:c7:22:ac:ae:bd:17:75:61:dd:
                    9d:7c:56:77:70:a0:f4:58:5e:6f:11:a3:2b:2a:ec:
                    50:cc:d2:48:b3:86:fa:44:3c:ec:73:b2:c0:05:18:
                    03:ef:f9:76:11:3e:a5:cf:bf:cd:59:f3:b2:1a:5f:
                    23:9c:05:a6:c2:ae:dd:98:d0:44:0a:5d:64:9f:b7:
                    56:f1:71:29:e8:20:eb:a2:17:c3:c7:13:fc:08:f8:
                    3f:6d:84:3e:fe:08:a0:b5:ea:51:71:98:2b:34:49:
                    04:75
                Exponent: 65537 (0x10001)
        X509v3 extensions:
            X509v3 Basic Constraints: 
                CA:FALSE
            X509v3 Subject Key Identifier: 
                BC:B5:90:49:B4:E3:E0:FC:8C:C4:C3:C5:E0:71:18:80:06:15:E1:CA
            X509v3 Authority Key Identifier: 
                keyid:0D:5A:E3:33:27:46:E1:21:D5:37:F8:E2:DF:24:7D:F0:4F:CE:A5:AB
                DirName:/CN=mgec
                serial:FA:9D:5B:23:E1:9D:1F:A7

            X509v3 Extended Key Usage: 
                TLS Web Server Authentication
            X509v3 Key Usage: 
                Digital Signature, Key Encipherment
            X509v3 Subject Alternative Name: 
                DNS:server
    Signature Algorithm: sha256WithRSAEncryption
         b0:ec:f2:1c:1b:cd:1a:d8:b7:d8:f8:e4:28:d0:fc:e1:5b:6e:
         3e:b4:6e:5c:fa:66:51:44:fc:f3:d8:f1:7b:0e:92:28:f8:08:
         3b:1f:1a:58:a4:57:58:b1:ad:84:78:b7:51:3e:67:72:d4:69:
         b5:82:ac:b6:35:2f:2b:6b:0e:f4:2c:87:1b:da:29:05:22:6f:
         f0:85:64:34:7a:6f:ee:fc:b6:93:90:ac:b0:69:0f:68:f6:90:
         7c:73:13:00:e4:c0:2d:be:c4:fa:4c:3b:94:b5:9c:96:31:ce:
         0d:03:d6:db:3f:f4:a4:a9:d9:b0:00:58:d7:a3:8e:d2:84:7a:
         81:68:be:e4:5f:02:c1:65:df:d4:a4:ae:39:d8:7b:a4:6d:3d:
         c9:97:1d:56:89:d1:e6:a8:d3:5e:52:cb:52:6f:cd:10:b9:34:
         f0:a5:09:15:10:69:91:50:02:8f:fb:90:33:65:67:61:f1:8e:
         54:26:62:34:a0:1a:c1:38:46:66:aa:42:cc:90:c3:e5:21:ee:
         a1:c2:0e:c5:cb:d5:34:4c:2c:f9:c1:3f:ea:86:e8:3a:ca:52:
         8b:ae:3e:d6:3d:6c:62:9a:f5:4f:a9:f3:35:a0:86:a2:e2:6f:
         60:e2:41:f1:83:03:1c:fe:15:d3:76:3f:3a:f1:29:cf:01:1e:
         e1:50:35:01
-----BEGIN CERTIFICATE-----
MIIDTzCCAjegAwIBAgIRAN2jppAcrU+W65jheFA1lFMwDQYJKoZIhvcNAQELBQAw
DzENMAsGA1UEAwwEbWdlYzAeFw0yMDA2MDUwOTMxMzNaFw0yMjA5MDgwOTMxMzNa
MBExDzANBgNVBAMMBnNlcnZlcjCCASIwDQYJKoZIhvcNAQEBBQADggEPADCCAQoC
ggEBAJ2wR03w7ar0xpjJYj/uS5WuKZkZkn8U9fCLtW8Q6JEQk1Qd06hDjiQzh4Ap
18AsDZzmJz3r71OVEonYYfRYcoupgRAJYAS6U2wajpoHkxyoUJ5HUQb5BItMkner
rDZ0zfqMj1dRRVFGsWoglh4bqhezo3FbZ4q78ATt2RjORPtTdaPQpof1d+NqIKG/
fB6iebPCVhJjscgQe5fqxyKsrr0XdWHdnXxWd3Cg9FhebxGjKyrsUMzSSLOG+kQ8
7HOywAUYA+/5dhE+pc+/zVnzshpfI5wFpsKu3ZjQRApdZJ+3VvFxKegg66IXw8cT
/Aj4P22EPv4IoLXqUXGYKzRJBHUCAwEAAaOBozCBoDAJBgNVHRMEAjAAMB0GA1Ud
DgQWBBS8tZBJtOPg/IzEw8XgcRiABhXhyjA/BgNVHSMEODA2gBQNWuMzJ0bhIdU3
+OLfJH3wT86lq6ETpBEwDzENMAsGA1UEAwwEbWdlY4IJAPqdWyPhnR+nMBMGA1Ud
JQQMMAoGCCsGAQUFBwMBMAsGA1UdDwQEAwIFoDARBgNVHREECjAIggZzZXJ2ZXIw
DQYJKoZIhvcNAQELBQADggEBALDs8hwbzRrYt9j45CjQ/OFbbj60blz6ZlFE/PPY
8XsOkij4CDsfGlikV1ixrYR4t1E+Z3LUabWCrLY1LytrDvQshxvaKQUib/CFZDR6
b+78tpOQrLBpD2j2kHxzEwDkwC2+xPpMO5S1nJYxzg0D1ts/9KSp2bAAWNejjtKE
eoFovuRfAsFl39SkrjnYe6RtPcmXHVaJ0eao015Sy1JvzRC5NPClCRUQaZFQAo/7
kDNlZ2HxjlQmYjSgGsE4RmaqQsyQw+Uh7qHCDsXL1TRMLPnBP+qG6DrKUouuPtY9
bGKa9U+p8zWghqLib2DiQfGDAxz+FdN2PzrxKc8BHuFQNQE=
-----END CERTIFICATE-----
